target datalayout = "e-m:e-p270:32:32-p271:32:32-p272:64:64-i64:64-i128:128-f80:128-n8:16:32:64-S128"
target triple = "x86_64-pc-linux-gnu"

%class.symbol = type { ptr }
%class.ref_vector = type { %class.ref_vector_core }
%class.ref_vector_core = type { %class.ref_manager_wrapper, %class.ptr_vector }
%class.ref_manager_wrapper = type { ptr }
%class.ptr_vector = type { %class.vector }
%class.vector = type { ptr }
%class.ref = type { ptr }
%class.check_sat_result = type { ptr, ptr, %class.ref_vector, %class.obj_ref, i32, i32, %class.ref, double }
%class.obj_ref = type { ptr, ptr }
%class.params_ref = type { ptr }
%struct.solver_params = type { ptr, %class.params_ref }
%class.solver = type { %class.check_sat_result, %"class.user_propagator::core", %class.params_ref, %class.symbol }
%"class.user_propagator::core" = type { ptr }

@.str.2 = private unnamed_addr constant [1 x i8] zeroinitializer, align 1
@.str.4 = private unnamed_addr constant [7 x i8] c"solver\00", align 1
@.str.7 = private unnamed_addr constant [19 x i8] c"cancel_backup_file\00", align 1

; Function Attrs: inlinehint mustprogress nounwind uwtable
define linkonce_odr hidden void @_ZN13solver_paramsD2Ev(ptr noundef nonnull align 8 dereferenceable(16) %0) unnamed_addr #7 comdat align 2 {
  %2 = alloca ptr, align 8
  store ptr %0, ptr %2, align 8, !tbaa !167
  %3 = load ptr, ptr %2, align 8
  %4 = getelementptr inbounds nuw %struct.solver_params, ptr %3, i32 0, i32 1
  call void @_ZN10params_refD1Ev(ptr noundef nonnull align 8 dereferenceable(8) %4) #3
  ret void
}

; Function Attrs: mustprogress uwtable
define linkonce_odr hidden ptr @_ZNK13solver_params18cancel_backup_fileEv(ptr noundef nonnull align 8 dereferenceable(16) %0) #4 comdat align 2 {
  %2 = alloca %class.symbol, align 8
  %3 = alloca ptr, align 8
  %4 = alloca %class.symbol, align 8
  store ptr %0, ptr %3, align 8, !tbaa !167
  %5 = load ptr, ptr %3, align 8
  %6 = getelementptr inbounds nuw %struct.solver_params, ptr %5, i32 0, i32 0
  %7 = load ptr, ptr %6, align 8, !tbaa !172
  %8 = getelementptr inbounds nuw %struct.solver_params, ptr %5, i32 0, i32 1
  call void @llvm.lifetime.start.p0(i64 8, ptr %4) #3
  call void @_ZN6symbolC1EPKc(ptr noundef nonnull align 8 dereferenceable(8) %4, ptr noundef @.str.2)
  %9 = call ptr @_ZNK10params_ref7get_symEPKcRKS_RK6symbol(ptr noundef nonnull align 8 dereferenceable(8) %7, ptr noundef @.str.7, ptr noundef nonnull align 8 dereferenceable(8) %8, ptr noundef nonnull align 8 dereferenceable(8) %4)
  %10 = getelementptr inbounds nuw %class.symbol, ptr %2, i32 0, i32 0
  store ptr %9, ptr %10, align 8
  call void @llvm.lifetime.end.p0(i64 8, ptr %4) #3
  %11 = getelementptr inbounds nuw %class.symbol, ptr %2, i32 0, i32 0
  %12 = load ptr, ptr %11, align 8
  ret ptr %12
}

; Function Attrs: mustprogress uwtable
define linkonce_odr hidden void @_ZN13solver_paramsC2ERK10params_ref(ptr noundef nonnull align 8 dereferenceable(16) %0, ptr noundef nonnull align 8 dereferenceable(8) %1) unnamed_addr #4 comdat align 2 {
  %3 = alloca ptr, align 8
  %4 = alloca ptr, align 8
  store ptr %0, ptr %3, align 8, !tbaa !167
  store ptr %1, ptr %4, align 8, !tbaa !77
  %5 = load ptr, ptr %3, align 8
  %6 = getelementptr inbounds nuw %struct.solver_params, ptr %5, i32 0, i32 0
  %7 = load ptr, ptr %4, align 8, !tbaa !77
  store ptr %7, ptr %6, align 8, !tbaa !77
  %8 = getelementptr inbounds nuw %struct.solver_params, ptr %5, i32 0, i32 1
  call void @_ZN7gparams10get_moduleEPKc(ptr dead_on_unwind writable sret(%class.params_ref) align 8 %8, ptr noundef @.str.4)
  ret void
}

; Function Attrs: mustprogress uwtable
define linkonce_odr hidden void @_ZN10params_ref6appendERKS_(ptr noundef nonnull align 8 dereferenceable(8) %0, ptr noundef nonnull align 8 dereferenceable(8) %1) #4 comdat align 2 {
  %3 = alloca ptr, align 8
  %4 = alloca ptr, align 8
  store ptr %0, ptr %3, align 8, !tbaa !77
  store ptr %1, ptr %4, align 8, !tbaa !77
  %5 = load ptr, ptr %3, align 8
  %6 = load ptr, ptr %4, align 8, !tbaa !77
  call void @_ZN10params_ref4copyERKS_(ptr noundef nonnull align 8 dereferenceable(8) %5, ptr noundef nonnull align 8 dereferenceable(8) %6)
  ret void
}

; Function Attrs: mustprogress uwtable
define hidden void @_ZN6solver12reset_paramsERK10params_ref(ptr noundef nonnull align 8 dereferenceable(96) %0, ptr noundef nonnull align 8 dereferenceable(8) %1) unnamed_addr #4 align 2 personality ptr @__gxx_personality_v0 {
  %3 = alloca ptr, align 8
  %4 = alloca ptr, align 8
  %5 = alloca %struct.solver_params, align 8
  %6 = alloca %class.symbol, align 8
  %7 = alloca ptr, align 8
  %8 = alloca i32, align 4
  store ptr %0, ptr %3, align 8, !tbaa !3
  store ptr %1, ptr %4, align 8, !tbaa !77
  %9 = load ptr, ptr %3, align 8
  %10 = getelementptr inbounds nuw %class.solver, ptr %9, i32 0, i32 2
  %11 = load ptr, ptr %4, align 8, !tbaa !77
  call void @_ZN10params_ref6appendERKS_(ptr noundef nonnull align 8 dereferenceable(8) %10, ptr noundef nonnull align 8 dereferenceable(8) %11)
  call void @llvm.lifetime.start.p0(i64 16, ptr %5) #3
  %12 = getelementptr inbounds nuw %class.solver, ptr %9, i32 0, i32 2
  call void @_ZN13solver_paramsC2ERK10params_ref(ptr noundef nonnull align 8 dereferenceable(16) %5, ptr noundef nonnull align 8 dereferenceable(8) %12)
  call void @llvm.lifetime.start.p0(i64 8, ptr %6) #3
  %13 = invoke ptr @_ZNK13solver_params18cancel_backup_fileEv(ptr noundef nonnull align 8 dereferenceable(16) %5)
          to label %14 unwind label %17

14:                                               ; preds = %2
  %15 = getelementptr inbounds nuw %class.symbol, ptr %6, i32 0, i32 0
  store ptr %13, ptr %15, align 8
  %16 = getelementptr inbounds nuw %class.solver, ptr %9, i32 0, i32 3
  call void @llvm.memcpy.p0.p0.i64(ptr align 8 %16, ptr align 8 %6, i64 8, i1 false), !tbaa.struct !171
  call void @llvm.lifetime.end.p0(i64 8, ptr %6) #3
  call void @_ZN13solver_paramsD2Ev(ptr noundef nonnull align 8 dereferenceable(16) %5) #3
  call void @llvm.lifetime.end.p0(i64 16, ptr %5) #3
  ret void

17:                                               ; preds = %2
  %18 = landingpad { ptr, i32 }
          cleanup
  %19 = extractvalue { ptr, i32 } %18, 0
  store ptr %19, ptr %7, align 8
  %20 = extractvalue { ptr, i32 } %18, 1
  store i32 %20, ptr %8, align 4
  call void @llvm.lifetime.end.p0(i64 8, ptr %6) #3
  call void @_ZN13solver_paramsD2Ev(ptr noundef nonnull align 8 dereferenceable(16) %5) #3
  call void @llvm.lifetime.end.p0(i64 16, ptr %5) #3
  br label %21

21:                                               ; preds = %17
  %22 = load ptr, ptr %7, align 8
  %23 = load i32, ptr %8, align 4
  %24 = insertvalue { ptr, i32 } poison, ptr %22, 0
  %25 = insertvalue { ptr, i32 } %24, i32 %23, 1
  resume { ptr, i32 } %25
}